target datalayout = "e-m:e-p270:32:32-p271:32:32-p272:64:64-i64:64-i128:128-f80:128-n8:16:32:64-S128"
target triple = "x86_64-pc-linux-gnu"

%struct.Float4X4 = type { %union.anon }
%union.anon = type { %struct.anon }
%struct.anon = type { float, float, float, float, float, float, float, float, float, float, float, float, float, float, float, float }
%struct.SDL_Rect = type { i32, i32, i32, i32 }
%struct.VULKAN_RenderData = type { ptr, ptr, i8, ptr, i8, ptr, %struct.VkPhysicalDeviceProperties, %struct.VkPhysicalDeviceMemoryProperties, %struct.VkPhysicalDeviceFeatures, ptr, ptr, ptr, i8, i32, i32, ptr, ptr, ptr, i32, ptr, ptr, %struct.VkSurfaceCapabilitiesKHR, ptr, i8, i32, i32, ptr, [2 x ptr], ptr, [3 x ptr], [3 x ptr], ptr, ptr, [256 x %struct.VULKAN_Buffer], %struct.VULKAN_VertexShaderConstants, ptr, ptr, ptr, ptr, i32, i32, [8 x ptr], ptr, ptr, i32, i32, i32, ptr, ptr, i8, i8, i8, i32, i32, i32, %struct.VkSurfaceFormatKHR, %struct.VkExtent2D, i32, i32, ptr, ptr, ptr, ptr, ptr, ptr, i32, ptr, ptr, i32, i32, ptr, i32, i32, ptr, i8, i8, %struct.SDL_Rect, %struct.SDL_Rect, i32, i8, %struct.Float4X4, %struct.VkComponentMapping, i32, i8 }
%struct.VkPhysicalDeviceProperties = type { i32, i32, i32, i32, i32, [256 x i8], [16 x i8], %struct.VkPhysicalDeviceLimits, %struct.VkPhysicalDeviceSparseProperties }
%struct.VkPhysicalDeviceLimits = type { i32, i32, i32, i32, i32, i32, i32, i32, i32, i32, i32, i64, i64, i32, i32, i32, i32, i32, i32, i32, i32, i32, i32, i32, i32, i32, i32, i32, i32, i32, i32, i32, i32, i32, i32, i32, i32, i32, i32, i32, i32, i32, i32, i32, i32, i32, i32, i32, i32, i32, i32, i32, [3 x i32], i32, [3 x i32], i32, i32, i32, i32, i32, float, float, i32, [2 x i32], [2 x float], i32, i64, i64, i64, i64, i32, i32, i32, i32, float, float, i32, i32, i32, i32, i32, i32, i32, i32, i32, i32, i32, i32, i32, i32, i32, i32, float, i32, i32, i32, i32, [2 x float], [2 x float], float, float, i32, i32, i64, i64, i64 }
%struct.VkPhysicalDeviceSparseProperties = type { i32, i32, i32, i32, i32 }
%struct.VkPhysicalDeviceMemoryProperties = type { i32, [32 x %struct.VkMemoryType], i32, [16 x %struct.VkMemoryHeap] }
%struct.VkMemoryType = type { i32, i32 }
%struct.VkMemoryHeap = type { i64, i32 }
%struct.VkPhysicalDeviceFeatures = type { i32, i32, i32, i32, i32, i32, i32, i32, i32, i32, i32, i32, i32, i32, i32, i32, i32, i32, i32, i32, i32, i32, i32, i32, i32, i32, i32, i32, i32, i32, i32, i32, i32, i32, i32, i32, i32, i32, i32, i32, i32, i32, i32, i32, i32, i32, i32, i32, i32, i32, i32, i32, i32, i32, i32 }
%struct.VkSurfaceCapabilitiesKHR = type { i32, i32, %struct.VkExtent2D, %struct.VkExtent2D, %struct.VkExtent2D, i32, i32, i32, i32, i32 }
%struct.VULKAN_Buffer = type { ptr, ptr, i64, ptr }
%struct.VULKAN_VertexShaderConstants = type { %struct.Float4X4, %struct.Float4X4 }
%struct.VkSurfaceFormatKHR = type { i32, i32 }
%struct.VkExtent2D = type { i32, i32 }
%struct.VkComponentMapping = type { i32, i32, i32, i32 }
%struct.VULKAN_Image = type { i8, ptr, ptr, ptr, i32, i32 }

@vkDestroyImageView = internal global ptr null, align 8
@vkDestroyImage = internal global ptr null, align 8
@vkFreeMemory = internal global ptr null, align 8

; Function Attrs: nounwind uwtable
define internal void @VULKAN_DestroyImage(ptr noundef %0, ptr noundef %1) #0 {
  %3 = alloca ptr, align 8
  %4 = alloca ptr, align 8
  store ptr %0, ptr %3, align 8
  store ptr %1, ptr %4, align 8
  %5 = load ptr, ptr %4, align 8
  %6 = getelementptr inbounds nuw %struct.VULKAN_Image, ptr %5, i32 0, i32 2
  %7 = load ptr, ptr %6, align 8
  %8 = icmp ne ptr %7, null
  br i1 %8, label %9, label %19

9:                                                ; preds = %2
  %10 = load ptr, ptr @vkDestroyImageView, align 8
  %11 = load ptr, ptr %3, align 8
  %12 = getelementptr inbounds nuw %struct.VULKAN_RenderData, ptr %11, i32 0, i32 11
  %13 = load ptr, ptr %12, align 8
  %14 = load ptr, ptr %4, align 8
  %15 = getelementptr inbounds nuw %struct.VULKAN_Image, ptr %14, i32 0, i32 2
  %16 = load ptr, ptr %15, align 8
  call void %10(ptr noundef %13, ptr noundef %16, ptr noundef null)
  %17 = load ptr, ptr %4, align 8
  %18 = getelementptr inbounds nuw %struct.VULKAN_Image, ptr %17, i32 0, i32 2
  store ptr null, ptr %18, align 8
  br label %19

19:                                               ; preds = %9, %2
  %20 = load ptr, ptr %4, align 8
  %21 = getelementptr inbounds nuw %struct.VULKAN_Image, ptr %20, i32 0, i32 1
  %22 = load ptr, ptr %21, align 8
  %23 = icmp ne ptr %22, null
  br i1 %23, label %24, label %40

24:                                               ; preds = %19
  %25 = load ptr, ptr %4, align 8
  %26 = getelementptr inbounds nuw %struct.VULKAN_Image, ptr %25, i32 0, i32 0
  %27 = load i8, ptr %26, align 8, !range !3, !noundef !4
  %28 = trunc i8 %27 to i1
  br i1 %28, label %29, label %37

29:                                               ; preds = %24
  %30 = load ptr, ptr @vkDestroyImage, align 8
  %31 = load ptr, ptr %3, align 8
  %32 = getelementptr inbounds nuw %struct.VULKAN_RenderData, ptr %31, i32 0, i32 11
  %33 = load ptr, ptr %32, align 8
  %34 = load ptr, ptr %4, align 8
  %35 = getelementptr inbounds nuw %struct.VULKAN_Image, ptr %34, i32 0, i32 1
  %36 = load ptr, ptr %35, align 8
  call void %30(ptr noundef %33, ptr noundef %36, ptr noundef null)
  br label %37

37:                                               ; preds = %29, %24
  %38 = load ptr, ptr %4, align 8
  %39 = getelementptr inbounds nuw %struct.VULKAN_Image, ptr %38, i32 0, i32 1
  store ptr null, ptr %39, align 8
  br label %40

40:                                               ; preds = %37, %19
  %41 = load ptr, ptr %4, align 8
  %42 = getelementptr inbounds nuw %struct.VULKAN_Image, ptr %41, i32 0, i32 3
  %43 = load ptr, ptr %42, align 8
  %44 = icmp ne ptr %43, null
  br i1 %44, label %45, label %61

45:                                               ; preds = %40
  %46 = load ptr, ptr %4, align 8
  %47 = getelementptr inbounds nuw %struct.VULKAN_Image, ptr %46, i32 0, i32 0
  %48 = load i8, ptr %47, align 8, !range !3, !noundef !4
  %49 = trunc i8 %48 to i1
  br i1 %49, label %50, label %58

50:                                               ; preds = %45
  %51 = load ptr, ptr @vkFreeMemory, align 8
  %52 = load ptr, ptr %3, align 8
  %53 = getelementptr inbounds nuw %struct.VULKAN_RenderData, ptr %52, i32 0, i32 11
  %54 = load ptr, ptr %53, align 8
  %55 = load ptr, ptr %4, align 8
  %56 = getelementptr inbounds nuw %struct.VULKAN_Image, ptr %55, i32 0, i32 3
  %57 = load ptr, ptr %56, align 8
  call void %51(ptr noundef %54, ptr noundef %57, ptr noundef null)
  br label %58

58:                                               ; preds = %50, %45
  %59 = load ptr, ptr %4, align 8
  %60 = getelementptr inbounds nuw %struct.VULKAN_Image, ptr %59, i32 0, i32 3
  store ptr null, ptr %60, align 8
  br label %61

61:                                               ; preds = %58, %40
  %62 = load ptr, ptr %4, align 8
  call void @llvm.memset.p0.i64(ptr align 8 %62, i8 0, i64 40, i1 false)
  ret void
}