; Function Attrs: nounwind uwtable
define internal fastcc void @VULKAN_DestroyImage(ptr noundef readonly captures(none) %0, ptr noundef nonnull captures(none) initializes((1, 8), (32, 40)) %1) unnamed_addr #0 {
  %3 = getelementptr inbounds nuw i8, ptr %1, i64 16
  %4 = load ptr, ptr %3, align 8
  %.not = icmp eq ptr %4, null
  br i1 %.not, label %9, label %5

5:                                                ; preds = %2
  %6 = load ptr, ptr @vkDestroyImageView, align 8
  %7 = getelementptr inbounds nuw i8, ptr %0, i64 1632
  %8 = load ptr, ptr %7, align 8
  tail call void %6(ptr noundef %8, ptr noundef nonnull %4, ptr noundef null) #8
  store ptr null, ptr %3, align 8
  br label %9

9:                                                ; preds = %5, %2
  %10 = getelementptr inbounds nuw i8, ptr %1, i64 8
  %11 = load ptr, ptr %10, align 8
  %.not17 = icmp eq ptr %11, null
  br i1 %.not17, label %20, label %12

12:                                               ; preds = %9
  %13 = load i8, ptr %1, align 8, !range !3, !noundef !4
  %14 = trunc nuw i8 %13 to i1
  br i1 %14, label %15, label %19

15:                                               ; preds = %12
  %16 = load ptr, ptr @vkDestroyImage, align 8
  %17 = getelementptr inbounds nuw i8, ptr %0, i64 1632
  %18 = load ptr, ptr %17, align 8
  tail call void %16(ptr noundef %18, ptr noundef nonnull %11, ptr noundef null) #8
  br label %19

19:                                               ; preds = %15, %12
  store ptr null, ptr %10, align 8
  br label %20

20:                                               ; preds = %19, %9
  %21 = getelementptr inbounds nuw i8, ptr %1, i64 24
  %22 = load ptr, ptr %21, align 8
  %.not18 = icmp eq ptr %22, null
  br i1 %.not18, label %30, label %23

23:                                               ; preds = %20
  %24 = load i8, ptr %1, align 8, !range !3, !noundef !4
  %25 = trunc nuw i8 %24 to i1
  br i1 %25, label %26, label %30

26:                                               ; preds = %23
  %27 = load ptr, ptr @vkFreeMemory, align 8
  %28 = getelementptr inbounds nuw i8, ptr %0, i64 1632
  %29 = load ptr, ptr %28, align 8
  tail call void %27(ptr noundef %29, ptr noundef nonnull %22, ptr noundef null) #8
  br label %30

30:                                               ; preds = %23, %26, %20
  tail call void @llvm.memset.p0.i64(ptr noundef nonnull align 8 dereferenceable(40) %1, i8 0, i64 40, i1 false)
  ret void
}